target datalayout = "e-m:e-p270:32:32-p271:32:32-p272:64:64-i64:64-i128:128-f80:128-n8:16:32:64-S128"
target triple = "x86_64-pc-linux-gnu"

; Function Attrs: inlinehint mustprogress nounwind uwtable
define linkonce_odr noundef nonnull align 4 dereferenceable(4) ptr @_ZSt3minIiERKT_S2_S2_(ptr noundef nonnull align 4 dereferenceable(4) %0, ptr noundef nonnull align 4 dereferenceable(4) %1) #0 comdat {
  %3 = alloca ptr, align 8
  %4 = alloca ptr, align 8
  %5 = alloca ptr, align 8
  store ptr %0, ptr %4, align 8, !tbaa !179
  store ptr %1, ptr %5, align 8, !tbaa !179
  %6 = load ptr, ptr %5, align 8, !tbaa !179
  %7 = load i32, ptr %6, align 4, !tbaa !48
  %8 = load ptr, ptr %4, align 8, !tbaa !179
  %9 = load i32, ptr %8, align 4, !tbaa !48
  %10 = icmp slt i32 %7, %9
  br i1 %10, label %11, label %13

11:                                               ; preds = %2
  %12 = load ptr, ptr %5, align 8, !tbaa !179
  store ptr %12, ptr %3, align 8
  br label %15

13:                                               ; preds = %2
  %14 = load ptr, ptr %4, align 8, !tbaa !179
  store ptr %14, ptr %3, align 8
  br label %15

15:                                               ; preds = %13, %11
  %16 = load ptr, ptr %3, align 8
  ret ptr %16
}

; Function Attrs: inlinehint mustprogress nounwind uwtable
define linkonce_odr noundef nonnull align 4 dereferenceable(4) ptr @_ZSt3maxIiERKT_S2_S2_(ptr noundef nonnull align 4 dereferenceable(4) %0, ptr noundef nonnull align 4 dereferenceable(4) %1) #0 comdat {
  %3 = alloca ptr, align 8
  %4 = alloca ptr, align 8
  %5 = alloca ptr, align 8
  store ptr %0, ptr %4, align 8, !tbaa !179
  store ptr %1, ptr %5, align 8, !tbaa !179
  %6 = load ptr, ptr %4, align 8, !tbaa !179
  %7 = load i32, ptr %6, align 4, !tbaa !48
  %8 = load ptr, ptr %5, align 8, !tbaa !179
  %9 = load i32, ptr %8, align 4, !tbaa !48
  %10 = icmp slt i32 %7, %9
  br i1 %10, label %11, label %13

11:                                               ; preds = %2
  %12 = load ptr, ptr %5, align 8, !tbaa !179
  store ptr %12, ptr %3, align 8
  br label %15

13:                                               ; preds = %2
  %14 = load ptr, ptr %4, align 8, !tbaa !179
  store ptr %14, ptr %3, align 8
  br label %15

15:                                               ; preds = %13, %11
  %16 = load ptr, ptr %3, align 8
  ret ptr %16
}

; Function Attrs: inlinehint mustprogress nounwind uwtable
define linkonce_odr noundef nofpclass(nan inf) float @_ZSt4sqrtf(float noundef nofpclass(nan inf) %0) #0 comdat {
  %2 = alloca float, align 4
  store float %0, ptr %2, align 4, !tbaa !90
  %3 = load float, ptr %2, align 4, !tbaa !90
  %4 = call fast float @llvm.sqrt.f32(float %3)
  ret float %4
}

; Function Attrs: mustprogress uwtable
define internal void @_ZN4ncnnL20get_optimal_tile_mnkEiiiRiS0_S0_i(i32 noundef %0, i32 noundef %1, i32 noundef %2, ptr noundef nonnull align 4 dereferenceable(4) %3, ptr noundef nonnull align 4 dereferenceable(4) %4, ptr noundef nonnull align 4 dereferenceable(4) %5, i32 noundef %6) #2 {
  %8 = alloca i32, align 4
  %9 = alloca i32, align 4
  %10 = alloca i32, align 4
  %11 = alloca ptr, align 8
  %12 = alloca ptr, align 8
  %13 = alloca ptr, align 8
  %14 = alloca i32, align 4
  %15 = alloca i64, align 8
  %16 = alloca i32, align 4
  %17 = alloca i32, align 4
  %18 = alloca i32, align 4
  %19 = alloca i32, align 4
  %20 = alloca i32, align 4
  %21 = alloca i32, align 4
  %22 = alloca i32, align 4
  %23 = alloca i32, align 4
  %24 = alloca i32, align 4
  %25 = alloca i32, align 4
  %26 = alloca i32, align 4
  %27 = alloca i32, align 4
  %28 = alloca i32, align 4
  %29 = alloca i32, align 4
  %30 = alloca i32, align 4
  %31 = alloca i32, align 4
  %32 = alloca i32, align 4
  %33 = alloca i32, align 4
  %34 = alloca i32, align 4
  store i32 %0, ptr %8, align 4, !tbaa !48
  store i32 %1, ptr %9, align 4, !tbaa !48
  store i32 %2, ptr %10, align 4, !tbaa !48
  store ptr %3, ptr %11, align 8, !tbaa !179
  store ptr %4, ptr %12, align 8, !tbaa !179
  store ptr %5, ptr %13, align 8, !tbaa !179
  store i32 %6, ptr %14, align 4, !tbaa !48
  call void @llvm.lifetime.start.p0(i64 8, ptr %15) #14
  %35 = call noundef i32 @_ZN4ncnn25get_cpu_level2_cache_sizeEv()
  %36 = sext i32 %35 to i64
  store i64 %36, ptr %15, align 8, !tbaa !84
  %37 = load i32, ptr %14, align 4, !tbaa !48
  %38 = icmp eq i32 %37, 0
  br i1 %38, label %39, label %41

39:                                               ; preds = %7
  %40 = call noundef i32 @_ZN4ncnn26get_physical_big_cpu_countEv()
  store i32 %40, ptr %14, align 4, !tbaa !48
  br label %41

41:                                               ; preds = %39, %7
  call void @llvm.lifetime.start.p0(i64 4, ptr %16) #14
  %42 = load i64, ptr %15, align 8, !tbaa !84
  %43 = uitofp i64 %42 to float
  %44 = fdiv fast float %43, 4.000000e+00
  %45 = fdiv fast float %44, 3.000000e+00
  %46 = call fast noundef nofpclass(nan inf) float @_ZSt4sqrtf(float noundef nofpclass(nan inf) %45)
  %47 = fptosi float %46 to i32
  store i32 %47, ptr %16, align 4, !tbaa !48
  call void @llvm.lifetime.start.p0(i64 4, ptr %17) #14
  store i32 8, ptr %17, align 4, !tbaa !48
  call void @llvm.lifetime.start.p0(i64 4, ptr %18) #14
  %48 = load i32, ptr %16, align 4, !tbaa !48
  %49 = sdiv i32 %48, 8
  %50 = mul nsw i32 %49, 8
  store i32 %50, ptr %18, align 4, !tbaa !48
  %51 = call noundef nonnull align 4 dereferenceable(4) ptr @_ZSt3maxIiERKT_S2_S2_(ptr noundef nonnull align 4 dereferenceable(4) %17, ptr noundef nonnull align 4 dereferenceable(4) %18)
  %52 = load i32, ptr %51, align 4, !tbaa !48
  %53 = load ptr, ptr %11, align 8, !tbaa !179
  store i32 %52, ptr %53, align 4, !tbaa !48
  call void @llvm.lifetime.end.p0(i64 4, ptr %18) #14
  call void @llvm.lifetime.end.p0(i64 4, ptr %17) #14
  call void @llvm.lifetime.start.p0(i64 4, ptr %19) #14
  %54 = call noundef i32 @_ZN4ncnn22get_physical_cpu_countEv()
  store i32 %54, ptr %19, align 4, !tbaa !48
  %55 = call noundef nonnull align 4 dereferenceable(4) ptr @_ZSt3minIiERKT_S2_S2_(ptr noundef nonnull align 4 dereferenceable(4) %14, ptr noundef nonnull align 4 dereferenceable(4) %19)
  %56 = load i32, ptr %55, align 4, !tbaa !48
  %57 = load ptr, ptr %11, align 8, !tbaa !179
  %58 = load i32, ptr %57, align 4, !tbaa !48
  %59 = mul nsw i32 %58, %56
  store i32 %59, ptr %57, align 4, !tbaa !48
  call void @llvm.lifetime.end.p0(i64 4, ptr %19) #14
  call void @llvm.lifetime.start.p0(i64 4, ptr %20) #14
  %60 = load i32, ptr %8, align 4, !tbaa !48
  %61 = load ptr, ptr %11, align 8, !tbaa !179
  %62 = load i32, ptr %61, align 4, !tbaa !48
  %63 = add nsw i32 %60, %62
  %64 = sub nsw i32 %63, 1
  %65 = load ptr, ptr %11, align 8, !tbaa !179
  %66 = load i32, ptr %65, align 4, !tbaa !48
  %67 = sdiv i32 %64, %66
  store i32 %67, ptr %20, align 4, !tbaa !48
  %68 = load ptr, ptr %11, align 8, !tbaa !179
  call void @llvm.lifetime.start.p0(i64 4, ptr %21) #14
  %69 = load i32, ptr %8, align 4, !tbaa !48
  %70 = load i32, ptr %20, align 4, !tbaa !48
  %71 = add nsw i32 %69, %70
  %72 = sub nsw i32 %71, 1
  %73 = load i32, ptr %20, align 4, !tbaa !48
  %74 = sdiv i32 %72, %73
  %75 = add nsw i32 %74, 7
  %76 = sdiv i32 %75, 8
  %77 = mul nsw i32 %76, 8
  store i32 %77, ptr %21, align 4, !tbaa !48
  %78 = call noundef nonnull align 4 dereferenceable(4) ptr @_ZSt3minIiERKT_S2_S2_(ptr noundef nonnull align 4 dereferenceable(4) %68, ptr noundef nonnull align 4 dereferenceable(4) %21)
  %79 = load i32, ptr %78, align 4, !tbaa !48
  %80 = load ptr, ptr %11, align 8, !tbaa !179
  store i32 %79, ptr %80, align 4, !tbaa !48
  call void @llvm.lifetime.end.p0(i64 4, ptr %21) #14
  %81 = load i32, ptr %14, align 4, !tbaa !48
  %82 = icmp sgt i32 %81, 1
  br i1 %82, label %83, label %97

83:                                               ; preds = %41
  %84 = load ptr, ptr %11, align 8, !tbaa !179
  call void @llvm.lifetime.start.p0(i64 4, ptr %22) #14
  call void @llvm.lifetime.start.p0(i64 4, ptr %23) #14
  store i32 1, ptr %23, align 4, !tbaa !48
  call void @llvm.lifetime.start.p0(i64 4, ptr %24) #14
  %85 = load ptr, ptr %11, align 8, !tbaa !179
  %86 = load i32, ptr %85, align 4, !tbaa !48
  %87 = load i32, ptr %14, align 4, !tbaa !48
  %88 = sdiv i32 %86, %87
  store i32 %88, ptr %24, align 4, !tbaa !48
  %89 = call noundef nonnull align 4 dereferenceable(4) ptr @_ZSt3maxIiERKT_S2_S2_(ptr noundef nonnull align 4 dereferenceable(4) %23, ptr noundef nonnull align 4 dereferenceable(4) %24)
  %90 = load i32, ptr %89, align 4, !tbaa !48
  %91 = add nsw i32 %90, 7
  %92 = sdiv i32 %91, 8
  %93 = mul nsw i32 %92, 8
  store i32 %93, ptr %22, align 4, !tbaa !48
  %94 = call noundef nonnull align 4 dereferenceable(4) ptr @_ZSt3minIiERKT_S2_S2_(ptr noundef nonnull align 4 dereferenceable(4) %84, ptr noundef nonnull align 4 dereferenceable(4) %22)
  %95 = load i32, ptr %94, align 4, !tbaa !48
  %96 = load ptr, ptr %11, align 8, !tbaa !179
  store i32 %95, ptr %96, align 4, !tbaa !48
  call void @llvm.lifetime.end.p0(i64 4, ptr %24) #14
  call void @llvm.lifetime.end.p0(i64 4, ptr %23) #14
  call void @llvm.lifetime.end.p0(i64 4, ptr %22) #14
  br label %97

97:                                               ; preds = %83, %41
  call void @llvm.lifetime.end.p0(i64 4, ptr %20) #14
  call void @llvm.lifetime.end.p0(i64 4, ptr %16) #14
  call void @llvm.lifetime.start.p0(i64 4, ptr %25) #14
  %98 = load i64, ptr %15, align 8, !tbaa !84
  %99 = uitofp i64 %98 to float
  %100 = fdiv fast float %99, 4.000000e+00
  %101 = call fast noundef nofpclass(nan inf) float @_ZSt4sqrtf(float noundef nofpclass(nan inf) %100)
  %102 = load ptr, ptr %11, align 8, !tbaa !179
  %103 = load i32, ptr %102, align 4, !tbaa !48
  %104 = sitofp i32 %103 to float
  %105 = fsub fast float %101, %104
  %106 = fptosi float %105 to i32
  store i32 %106, ptr %25, align 4, !tbaa !48
  call void @llvm.lifetime.start.p0(i64 4, ptr %26) #14
  store i32 8, ptr %26, align 4, !tbaa !48
  call void @llvm.lifetime.start.p0(i64 4, ptr %27) #14
  %107 = load i32, ptr %25, align 4, !tbaa !48
  %108 = sdiv i32 %107, 8
  %109 = mul nsw i32 %108, 8
  store i32 %109, ptr %27, align 4, !tbaa !48
  %110 = call noundef nonnull align 4 dereferenceable(4) ptr @_ZSt3maxIiERKT_S2_S2_(ptr noundef nonnull align 4 dereferenceable(4) %26, ptr noundef nonnull align 4 dereferenceable(4) %27)
  %111 = load i32, ptr %110, align 4, !tbaa !48
  %112 = load ptr, ptr %13, align 8, !tbaa !179
  store i32 %111, ptr %112, align 4, !tbaa !48
  call void @llvm.lifetime.end.p0(i64 4, ptr %27) #14
  call void @llvm.lifetime.end.p0(i64 4, ptr %26) #14
  call void @llvm.lifetime.start.p0(i64 4, ptr %28) #14
  %113 = load i32, ptr %10, align 4, !tbaa !48
  %114 = load ptr, ptr %13, align 8, !tbaa !179
  %115 = load i32, ptr %114, align 4, !tbaa !48
  %116 = add nsw i32 %113, %115
  %117 = sub nsw i32 %116, 1
  %118 = load ptr, ptr %13, align 8, !tbaa !179
  %119 = load i32, ptr %118, align 4, !tbaa !48
  %120 = sdiv i32 %117, %119
  store i32 %120, ptr %28, align 4, !tbaa !48
  %121 = load ptr, ptr %13, align 8, !tbaa !179
  call void @llvm.lifetime.start.p0(i64 4, ptr %29) #14
  %122 = load i32, ptr %10, align 4, !tbaa !48
  %123 = load i32, ptr %28, align 4, !tbaa !48
  %124 = add nsw i32 %122, %123
  %125 = sub nsw i32 %124, 1
  %126 = load i32, ptr %28, align 4, !tbaa !48
  %127 = sdiv i32 %125, %126
  %128 = add nsw i32 %127, 7
  %129 = sdiv i32 %128, 8
  %130 = mul nsw i32 %129, 8
  store i32 %130, ptr %29, align 4, !tbaa !48
  %131 = call noundef nonnull align 4 dereferenceable(4) ptr @_ZSt3minIiERKT_S2_S2_(ptr noundef nonnull align 4 dereferenceable(4) %121, ptr noundef nonnull align 4 dereferenceable(4) %29)
  %132 = load i32, ptr %131, align 4, !tbaa !48
  %133 = load ptr, ptr %13, align 8, !tbaa !179
  store i32 %132, ptr %133, align 4, !tbaa !48
  call void @llvm.lifetime.end.p0(i64 4, ptr %29) #14
  call void @llvm.lifetime.end.p0(i64 4, ptr %28) #14
  call void @llvm.lifetime.end.p0(i64 4, ptr %25) #14
  %134 = load i32, ptr %9, align 4, !tbaa !48
  %135 = icmp sgt i32 %134, 0
  br i1 %135, label %136, label %182

136:                                              ; preds = %97
  call void @llvm.lifetime.start.p0(i64 4, ptr %30) #14
  %137 = load i64, ptr %15, align 8, !tbaa !84
  %138 = uitofp i64 %137 to float
  %139 = fdiv fast float %138, 4.000000e+00
  %140 = load ptr, ptr %11, align 8, !tbaa !179
  %141 = load i32, ptr %140, align 4, !tbaa !48
  %142 = load ptr, ptr %13, align 8, !tbaa !179
  %143 = load i32, ptr %142, align 4, !tbaa !48
  %144 = mul nsw i32 %141, %143
  %145 = sitofp i32 %144 to float
  %146 = fsub fast float %139, %145
  %147 = load ptr, ptr %11, align 8, !tbaa !179
  %148 = load i32, ptr %147, align 4, !tbaa !48
  %149 = load ptr, ptr %13, align 8, !tbaa !179
  %150 = load i32, ptr %149, align 4, !tbaa !48
  %151 = add nsw i32 %148, %150
  %152 = sitofp i32 %151 to float
  %153 = fdiv fast float %146, %152
  %154 = fptosi float %153 to i32
  store i32 %154, ptr %30, align 4, !tbaa !48
  call void @llvm.lifetime.start.p0(i64 4, ptr %31) #14
  store i32 4, ptr %31, align 4, !tbaa !48
  call void @llvm.lifetime.start.p0(i64 4, ptr %32) #14
  %155 = load i32, ptr %30, align 4, !tbaa !48
  %156 = sdiv i32 %155, 4
  %157 = mul nsw i32 %156, 4
  store i32 %157, ptr %32, align 4, !tbaa !48
  %158 = call noundef nonnull align 4 dereferenceable(4) ptr @_ZSt3maxIiERKT_S2_S2_(ptr noundef nonnull align 4 dereferenceable(4) %31, ptr noundef nonnull align 4 dereferenceable(4) %32)
  %159 = load i32, ptr %158, align 4, !tbaa !48
  %160 = load ptr, ptr %12, align 8, !tbaa !179
  store i32 %159, ptr %160, align 4, !tbaa !48
  call void @llvm.lifetime.end.p0(i64 4, ptr %32) #14
  call void @llvm.lifetime.end.p0(i64 4, ptr %31) #14
  call void @llvm.lifetime.start.p0(i64 4, ptr %33) #14
  %161 = load i32, ptr %9, align 4, !tbaa !48
  %162 = load ptr, ptr %12, align 8, !tbaa !179
  %163 = load i32, ptr %162, align 4, !tbaa !48
  %164 = add nsw i32 %161, %163
  %165 = sub nsw i32 %164, 1
  %166 = load ptr, ptr %12, align 8, !tbaa !179
  %167 = load i32, ptr %166, align 4, !tbaa !48
  %168 = sdiv i32 %165, %167
  store i32 %168, ptr %33, align 4, !tbaa !48
  %169 = load ptr, ptr %12, align 8, !tbaa !179
  call void @llvm.lifetime.start.p0(i64 4, ptr %34) #14
  %170 = load i32, ptr %9, align 4, !tbaa !48
  %171 = load i32, ptr %33, align 4, !tbaa !48
  %172 = add nsw i32 %170, %171
  %173 = sub nsw i32 %172, 1
  %174 = load i32, ptr %33, align 4, !tbaa !48
  %175 = sdiv i32 %173, %174
  %176 = add nsw i32 %175, 3
  %177 = sdiv i32 %176, 4
  %178 = mul nsw i32 %177, 4
  store i32 %178, ptr %34, align 4, !tbaa !48
  %179 = call noundef nonnull align 4 dereferenceable(4) ptr @_ZSt3minIiERKT_S2_S2_(ptr noundef nonnull align 4 dereferenceable(4) %169, ptr noundef nonnull align 4 dereferenceable(4) %34)
  %180 = load i32, ptr %179, align 4, !tbaa !48
  %181 = load ptr, ptr %12, align 8, !tbaa !179
  store i32 %180, ptr %181, align 4, !tbaa !48
  call void @llvm.lifetime.end.p0(i64 4, ptr %34) #14
  call void @llvm.lifetime.end.p0(i64 4, ptr %33) #14
  call void @llvm.lifetime.end.p0(i64 4, ptr %30) #14
  br label %182

182:                                              ; preds = %136, %97
  call void @llvm.lifetime.end.p0(i64 8, ptr %15) #14
  ret void
}