; Function Attrs: mustprogress uwtable
define internal fastcc void @_ZN4ncnnL20get_optimal_tile_mnkEiiiRiS0_S0_i(i32 noundef %0, i32 noundef %1, i32 noundef %2, ptr noundef nonnull align 4 captures(none) dereferenceable(4) initializes((0, 4)) %3, ptr noundef nonnull writeonly align 4 captures(none) dereferenceable(4) %4, ptr noundef nonnull writeonly align 4 captures(none) dereferenceable(4) initializes((0, 4)) %5, i32 noundef %6) unnamed_addr #2 {
  %8 = tail call noundef i32 @_ZN4ncnn25get_cpu_level2_cache_sizeEv()
  %9 = sext i32 %8 to i64
  %10 = icmp eq i32 %6, 0
  br i1 %10, label %11, label %13

11:                                               ; preds = %7
  %12 = tail call noundef i32 @_ZN4ncnn26get_physical_big_cpu_countEv()
  br label %13

13:                                               ; preds = %11, %7
  %.0 = phi i32 [ %12, %11 ], [ %6, %7 ]
  %14 = uitofp i64 %9 to float
  %15 = fmul fast float %14, 2.500000e-01
  %16 = fmul fast float %14, 0x3FB5555560000000
  %17 = tail call fast noundef float @llvm.sqrt.f32(float %16)
  %18 = fptosi float %17 to i32
  %19 = sdiv i32 %18, 8
  %20 = shl nsw i32 %19, 3
  %.sroa.speculated86 = tail call i32 @llvm.smax.i32(i32 %20, i32 8)
  store i32 %.sroa.speculated86, ptr %3, align 4, !tbaa !75
  %21 = tail call noundef i32 @_ZN4ncnn22get_physical_cpu_countEv()
  %.sroa.speculated82 = tail call i32 @llvm.smin.i32(i32 %21, i32 %.0)
  %22 = load i32, ptr %3, align 4, !tbaa !75
  %23 = mul nsw i32 %22, %.sroa.speculated82
  %24 = add i32 %0, -1
  %25 = add i32 %24, %23
  %26 = sdiv i32 %25, %23
  %27 = add i32 %24, %26
  %28 = sdiv i32 %27, %26
  %29 = add nsw i32 %28, 7
  %30 = sdiv i32 %29, 8
  %31 = shl nsw i32 %30, 3
  %.sroa.speculated78 = tail call i32 @llvm.smin.i32(i32 %31, i32 %23)
  %32 = icmp sgt i32 %.0, 1
  br i1 %32, label %33, label %37

33:                                               ; preds = %13
  %34 = sdiv i32 %.sroa.speculated78, %.0
  %.sroa.speculated68 = tail call i32 @llvm.smax.i32(i32 %34, i32 1)
  %35 = add nuw nsw i32 %.sroa.speculated68, 7
  %36 = and i32 %35, 2147483640
  %.sroa.speculated74 = tail call i32 @llvm.smin.i32(i32 %36, i32 %.sroa.speculated78)
  br label %37

37:                                               ; preds = %33, %13
  %storemerge = phi i32 [ %.sroa.speculated74, %33 ], [ %.sroa.speculated78, %13 ]
  store i32 %storemerge, ptr %3, align 4, !tbaa !75
  %38 = tail call fast noundef float @llvm.sqrt.f32(float %15)
  %39 = sitofp i32 %storemerge to float
  %40 = fsub fast float %38, %39
  %41 = fptosi float %40 to i32
  %42 = sdiv i32 %41, 8
  %43 = shl nsw i32 %42, 3
  %.sroa.speculated62 = tail call i32 @llvm.smax.i32(i32 %43, i32 8)
  %44 = add i32 %2, -1
  %45 = add i32 %44, %.sroa.speculated62
  %46 = sdiv i32 %45, %.sroa.speculated62
  %47 = add i32 %44, %46
  %48 = sdiv i32 %47, %46
  %49 = add nsw i32 %48, 7
  %50 = sdiv i32 %49, 8
  %51 = shl nsw i32 %50, 3
  %.sroa.speculated58 = tail call i32 @llvm.smin.i32(i32 %51, i32 %.sroa.speculated62)
  store i32 %.sroa.speculated58, ptr %5, align 4, !tbaa !75
  %52 = icmp sgt i32 %1, 0
  br i1 %52, label %53, label %71

53:                                               ; preds = %37
  %54 = load i32, ptr %3, align 4, !tbaa !75
  %55 = mul nsw i32 %54, %.sroa.speculated58
  %56 = sitofp i32 %55 to float
  %57 = fsub fast float %15, %56
  %58 = add nsw i32 %54, %.sroa.speculated58
  %59 = sitofp i32 %58 to float
  %60 = fdiv fast float %57, %59
  %61 = fptosi float %60 to i32
  %62 = sdiv i32 %61, 4
  %63 = shl nsw i32 %62, 2
  %.sroa.speculated52 = tail call i32 @llvm.smax.i32(i32 %63, i32 4)
  %64 = add nsw i32 %1, -1
  %65 = add nuw i32 %64, %.sroa.speculated52
  %66 = udiv i32 %65, %.sroa.speculated52
  %67 = add nuw i32 %64, %66
  %68 = udiv i32 %67, %66
  %69 = add nuw nsw i32 %68, 3
  %70 = and i32 %69, -4
  %.sroa.speculated = tail call i32 @llvm.umin.i32(i32 %70, i32 %.sroa.speculated52)
  store i32 %.sroa.speculated, ptr %4, align 4, !tbaa !75
  br label %71

71:                                               ; preds = %53, %37
  ret void
}